(imatplotlib.font_manager
FontManager
p1
(dp2
S'afm_lookup_cache'
p3
(dp4
sS'ttflist'
p5
(lp6
ccopy_reg
_reconstructor
p7
(cmatplotlib.font_manager
FontEntry
p8
c__builtin__
object
p9
NtRp10
(dp11
S'style'
p12
S'normal'
p13
sS'name'
p14
S'cmb10'
p15
sS'weight'
p16
I400
sS'stretch'
p17
g13
sS'variant'
p18
g13
sS'fname'
p19
S'/usr/share/matplotlib/mpl-data/fonts/ttf/cmb10.ttf'
p20
sS'size'
p21
S'scalable'
p22
sbag7
(g8
g9
NtRp23
(dp24
g12
g13
sg14
S'cmex10'
p25
sg16
I400
sg17
g13
sg18
g13
sg19
S'/usr/share/matplotlib/mpl-data/fonts/ttf/cmex10.ttf'
p26
sg21
g22
sbag7
(g8
g9
NtRp27
(dp28
g12
g13
sg14
S'Bitstream Vera Sans Mono'
p29
sg16
I400
sg17
g13
sg18
g13
sg19
S'/usr/share/matplotlib/mpl-data/fonts/ttf/VeraMono.ttf'
p30
sg21
g22
sbag7
(g8
g9
NtRp31
(dp32
g12
g13
sg14
S'Bitstream Vera Serif'
p33
sg16
I700
sg17
g13
sg18
g13
sg19
S'/usr/share/matplotlib/mpl-data/fonts/ttf/VeraSeBd.ttf'
p34
sg21
g22
sbag7
(g8
g9
NtRp35
(dp36
g12
S'italic'
p37
sg14
S'STIXNonUnicode'
p38
sg16
I400
sg17
g13
sg18
g13
sg19
S'/usr/share/matplotlib/mpl-data/fonts/ttf/STIXNonUniIta.ttf'
p39
sg21
g22
sbag7
(g8
g9
NtRp40
(dp41
g12
g13
sg14
S'STIXSizeOneSym'
p42
sg16
I400
sg17
g13
sg18
g13
sg19
S'/usr/share/matplotlib/mpl-data/fonts/ttf/STIXSizOneSymReg.ttf'
p43
sg21
g22
sbag7
(g8
g9
NtRp44
(dp45
g12
g13
sg14
S'STIXSizeThreeSym'
p46
sg16
I400
sg17
g13
sg18
g13
sg19
S'/usr/share/matplotlib/mpl-data/fonts/ttf/STIXSizThreeSymReg.ttf'
p47
sg21
g22
sbag7
(g8
g9
NtRp48
(dp49
g12
g13
sg14
S'STIXSizeTwoSym'
p50
sg16
I700
sg17
g13
sg18
g13
sg19
S'/usr/share/matplotlib/mpl-data/fonts/ttf/STIXSizTwoSymBol.ttf'
p51
sg21
g22
sbag7
(g8
g9
NtRp52
(dp53
g12
g13
sg14
S'cmtt10'
p54
sg16
I400
sg17
g13
sg18
g13
sg19
S'/usr/share/matplotlib/mpl-data/fonts/ttf/cmtt10.ttf'
p55
sg21
g22
sbag7
(g8
g9
NtRp56
(dp57
g12
g13
sg14
S'Bitstream Vera Serif'
p58
sg16
I400
sg17
g13
sg18
g13
sg19
S'/usr/share/matplotlib/mpl-data/fonts/ttf/VeraSe.ttf'
p59
sg21
g22
sbag7
(g8
g9
NtRp60
(dp61
g12
g13
sg14
S'STIXGeneral'
p62
sg16
I400
sg17
g13
sg18
g13
sg19
S'/usr/share/matplotlib/mpl-data/fonts/ttf/STIXGeneral.ttf'
p63
sg21
g22
sbag7
(g8
g9
NtRp64
(dp65
g12
g37
sg14
S'STIXNonUnicode'
p66
sg16
I700
sg17
g13
sg18
g13
sg19
S'/usr/share/matplotlib/mpl-data/fonts/ttf/STIXNonUniBolIta.ttf'
p67
sg21
g22
sbag7
(g8
g9
NtRp68
(dp69
g12
g13
sg14
S'STIXNonUnicode'
p70
sg16
I400
sg17
g13
sg18
g13
sg19
S'/usr/share/matplotlib/mpl-data/fonts/ttf/STIXNonUni.ttf'
p71
sg21
g22
sbag7
(g8
g9
NtRp72
(dp73
g12
g13
sg14
S'STIXSizeFiveSym'
p74
sg16
I400
sg17
g13
sg18
g13
sg19
S'/usr/share/matplotlib/mpl-data/fonts/ttf/STIXSizFiveSymReg.ttf'
p75
sg21
g22
sbag7
(g8
g9
NtRp76
(dp77
g12
g13
sg14
S'STIXSizeOneSym'
p78
sg16
I700
sg17
g13
sg18
g13
sg19
S'/usr/share/matplotlib/mpl-data/fonts/ttf/STIXSizOneSymBol.ttf'
p79
sg21
g22
sbag7
(g8
g9
NtRp80
(dp81
g12
S'oblique'
p82
sg14
S'Bitstream Vera Sans'
p83
sg16
I700
sg17
g13
sg18
g13
sg19
S'/usr/share/matplotlib/mpl-data/fonts/ttf/VeraBI.ttf'
p84
sg21
g22
sbag7
(g8
g9
NtRp85
(dp86
g12
g13
sg14
S'Bitstream Vera Sans'
p87
sg16
I700
sg17
g13
sg18
g13
sg19
S'/usr/share/matplotlib/mpl-data/fonts/ttf/VeraBd.ttf'
p88
sg21
g22
sbag7
(g8
g9
NtRp89
(dp90
g12
g82
sg14
S'Bitstream Vera Sans'
p91
sg16
I400
sg17
g13
sg18
g13
sg19
S'/usr/share/matplotlib/mpl-data/fonts/ttf/VeraIt.ttf'
p92
sg21
g22
sbag7
(g8
g9
NtRp93
(dp94
g12
g13
sg14
S'STIXGeneral'
p95
sg16
I700
sg17
g13
sg18
g13
sg19
S'/usr/share/matplotlib/mpl-data/fonts/ttf/STIXGeneralBol.ttf'
p96
sg21
g22
sbag7
(g8
g9
NtRp97
(dp98
g12
g13
sg14
S'cmr10'
p99
sg16
I400
sg17
g13
sg18
g13
sg19
S'/usr/share/matplotlib/mpl-data/fonts/ttf/cmr10.ttf'
p100
sg21
g22
sbag7
(g8
g9
NtRp101
(dp102
g12
g13
sg14
S'STIXSizeTwoSym'
p103
sg16
I400
sg17
g13
sg18
g13
sg19
S'/usr/share/matplotlib/mpl-data/fonts/ttf/STIXSizTwoSymReg.ttf'
p104
sg21
g22
sbag7
(g8
g9
NtRp105
(dp106
g12
g13
sg14
S'STIXSizeFourSym'
p107
sg16
I400
sg17
g13
sg18
g13
sg19
S'/usr/share/matplotlib/mpl-data/fonts/ttf/STIXSizFourSymReg.ttf'
p108
sg21
g22
sbag7
(g8
g9
NtRp109
(dp110
g12
g13
sg14
S'Bitstream Vera Sans'
p111
sg16
I400
sg17
g13
sg18
g13
sg19
S'/usr/share/matplotlib/mpl-data/fonts/ttf/Vera.ttf'
p112
sg21
g22
sbag7
(g8
g9
NtRp113
(dp114
g12
g13
sg14
S'cmsy10'
p115
sg16
I400
sg17
g13
sg18
g13
sg19
S'/usr/share/matplotlib/mpl-data/fonts/ttf/cmsy10.ttf'
p116
sg21
g22
sbag7
(g8
g9
NtRp117
(dp118
g12
g13
sg14
S'STIXSizeThreeSym'
p119
sg16
I700
sg17
g13
sg18
g13
sg19
S'/usr/share/matplotlib/mpl-data/fonts/ttf/STIXSizThreeSymBol.ttf'
p120
sg21
g22
sbag7
(g8
g9
NtRp121
(dp122
g12
g13
sg14
S'cmss10'
p123
sg16
I400
sg17
g13
sg18
g13
sg19
S'/usr/share/matplotlib/mpl-data/fonts/ttf/cmss10.ttf'
p124
sg21
g22
sbag7
(g8
g9
NtRp125
(dp126
g12
g13
sg14
S'STIXSizeFourSym'
p127
sg16
I700
sg17
g13
sg18
g13
sg19
S'/usr/share/matplotlib/mpl-data/fonts/ttf/STIXSizFourSymBol.ttf'
p128
sg21
g22
sbag7
(g8
g9
NtRp129
(dp130
g12
g37
sg14
S'STIXGeneral'
p131
sg16
I400
sg17
g13
sg18
g13
sg19
S'/usr/share/matplotlib/mpl-data/fonts/ttf/STIXGeneralItalic.ttf'
p132
sg21
g22
sbag7
(g8
g9
NtRp133
(dp134
g12
g13
sg14
S'Bitstream Vera Sans Mono'
p135
sg16
I700
sg17
g13
sg18
g13
sg19
S'/usr/share/matplotlib/mpl-data/fonts/ttf/VeraMoBd.ttf'
p136
sg21
g22
sbag7
(g8
g9
NtRp137
(dp138
g12
g13
sg14
S'cmmi10'
p139
sg16
I400
sg17
g13
sg18
g13
sg19
S'/usr/share/matplotlib/mpl-data/fonts/ttf/cmmi10.ttf'
p140
sg21
g22
sbag7
(g8
g9
NtRp141
(dp142
g12
g13
sg14
S'STIXNonUnicode'
p143
sg16
I700
sg17
g13
sg18
g13
sg19
S'/usr/share/matplotlib/mpl-data/fonts/ttf/STIXNonUniBol.ttf'
p144
sg21
g22
sbag7
(g8
g9
NtRp145
(dp146
g12
g82
sg14
S'Bitstream Vera Sans Mono'
p147
sg16
I400
sg17
g13
sg18
g13
sg19
S'/usr/share/matplotlib/mpl-data/fonts/ttf/VeraMoIt.ttf'
p148
sg21
g22
sbag7
(g8
g9
NtRp149
(dp150
g12
g82
sg14
S'Bitstream Vera Sans Mono'
p151
sg16
I700
sg17
g13
sg18
g13
sg19
S'/usr/share/matplotlib/mpl-data/fonts/ttf/VeraMoBI.ttf'
p152
sg21
g22
sbag7
(g8
g9
NtRp153
(dp154
g12
g37
sg14
S'STIXGeneral'
p155
sg16
I700
sg17
g13
sg18
g13
sg19
S'/usr/share/matplotlib/mpl-data/fonts/ttf/STIXGeneralBolIta.ttf'
p156
sg21
g22
sbag7
(g8
g9
NtRp157
(dp158
g12
g37
sg14
S'STIXNonUnicode'
p159
sg16
I700
sg17
g13
sg18
g13
sg19
S'/usr/share/fonts/stix-fonts/STIXNonUniBolIta.otf'
p160
sg21
g22
sbag7
(g8
g9
NtRp161
(dp162
g12
g13
sg14
S'STIXIntegralsD'
p163
sg16
I700
sg17
g13
sg18
g13
sg19
S'/usr/share/fonts/stix-fonts/STIXIntDBol.otf'
p164
sg21
g22
sbag7
(g8
g9
NtRp165
(dp166
g12
g13
sg14
S'STIXIntegralsSm'
p167
sg16
I700
sg17
g13
sg18
g13
sg19
S'/usr/share/fonts/stix-fonts/STIXIntSmBol.otf'
p168
sg21
g22
sbag7
(g8
g9
NtRp169
(dp170
g12
g13
sg14
S'STIXSizeTwoSym'
p171
sg16
I700
sg17
g13
sg18
g13
sg19
S'/usr/share/fonts/stix-fonts/STIXSizTwoSymBol.otf'
p172
sg21
g22
sbag7
(g8
g9
NtRp173
(dp174
g12
g13
sg14
S'STIXIntegralsUp'
p175
sg16
I700
sg17
g13
sg18
g13
sg19
S'/usr/share/fonts/stix-fonts/STIXIntUpBol.otf'
p176
sg21
g22
sbag7
(g8
g9
NtRp177
(dp178
g12
g13
sg14
S'STIXIntegralsUpD'
p179
sg16
I400
sg17
g13
sg18
g13
sg19
S'/usr/share/fonts/stix-fonts/STIXIntUpDReg.otf'
p180
sg21
g22
sbag7
(g8
g9
NtRp181
(dp182
g12
g13
sg14
S'STIXGeneral'
p183
sg16
I400
sg17
g13
sg18
g13
sg19
S'/usr/share/fonts/stix-fonts/STIXGeneral.otf'
p184
sg21
g22
sbag7
(g8
g9
NtRp185
(dp186
g12
g13
sg14
S'STIXNonUnicode'
p187
sg16
I400
sg17
g13
sg18
g13
sg19
S'/usr/share/fonts/stix-fonts/STIXNonUni.otf'
p188
sg21
g22
sbag7
(g8
g9
NtRp189
(dp190
g12
g37
sg14
S'STIXNonUnicode'
p191
sg16
I400
sg17
g13
sg18
g13
sg19
S'/usr/share/fonts/stix-fonts/STIXNonUniIta.otf'
p192
sg21
g22
sbag7
(g8
g9
NtRp193
(dp194
g12
g13
sg14
S'STIXIntegralsUpD'
p195
sg16
I700
sg17
g13
sg18
g13
sg19
S'/usr/share/fonts/stix-fonts/STIXIntUpDBol.otf'
p196
sg21
g22
sbag7
(g8
g9
NtRp197
(dp198
g12
g13
sg14
S'STIXGeneral'
p199
sg16
I700
sg17
g13
sg18
g13
sg19
S'/usr/share/fonts/stix-fonts/STIXGeneralBol.otf'
p200
sg21
g22
sbag7
(g8
g9
NtRp201
(dp202
g12
g13
sg14
S'Adobe Heiti Std'
p203
sg16
I400
sg17
g13
sg18
g13
sg19
S'/usr/share/fonts/douban-fonts/AdobeHeitiStd-Regular.otf'
p204
sg21
g22
sbag7
(g8
g9
NtRp205
(dp206
g12
g13
sg14
S'STIXNonUnicode'
p207
sg16
I700
sg17
g13
sg18
g13
sg19
S'/usr/share/fonts/stix-fonts/STIXNonUniBol.otf'
p208
sg21
g22
sbag7
(g8
g9
NtRp209
(dp210
g12
g13
sg14
S'STIXSizeFourSym'
p211
sg16
I400
sg17
g13
sg18
g13
sg19
S'/usr/share/fonts/stix-fonts/STIXSizFourSymReg.otf'
p212
sg21
g22
sbag7
(g8
g9
NtRp213
(dp214
g12
g13
sg14
S'STIXSizeThreeSym'
p215
sg16
I400
sg17
g13
sg18
g13
sg19
S'/usr/share/fonts/stix-fonts/STIXSizThreeSymReg.otf'
p216
sg21
g22
sbag7
(g8
g9
NtRp217
(dp218
g12
g13
sg14
S'STIXIntegralsUpSm'
p219
sg16
I400
sg17
g13
sg18
g13
sg19
S'/usr/share/fonts/stix-fonts/STIXIntUpSmReg.otf'
p220
sg21
g22
sbag7
(g8
g9
NtRp221
(dp222
g12
g13
sg14
S'STIXSizeFourSym'
p223
sg16
I700
sg17
g13
sg18
g13
sg19
S'/usr/share/fonts/stix-fonts/STIXSizFourSymBol.otf'
p224
sg21
g22
sbag7
(g8
g9
NtRp225
(dp226
g12
g13
sg14
S'STIXVariants'
p227
sg16
I400
sg17
g13
sg18
g13
sg19
S'/usr/share/fonts/stix-fonts/STIXVar.otf'
p228
sg21
g22
sbag7
(g8
g9
NtRp229
(dp230
g12
g13
sg14
S'STIXSizeThreeSym'
p231
sg16
I700
sg17
g13
sg18
g13
sg19
S'/usr/share/fonts/stix-fonts/STIXSizThreeSymBol.otf'
p232
sg21
g22
sbag7
(g8
g9
NtRp233
(dp234
g12
g13
sg14
S'STIXIntegralsUpSm'
p235
sg16
I700
sg17
g13
sg18
g13
sg19
S'/usr/share/fonts/stix-fonts/STIXIntUpSmBol.otf'
p236
sg21
g22
sbag7
(g8
g9
NtRp237
(dp238
g12
g37
sg14
S'STIXGeneral'
p239
sg16
I700
sg17
g13
sg18
g13
sg19
S'/usr/share/fonts/stix-fonts/STIXGeneralBolIta.otf'
p240
sg21
g22
sbag7
(g8
g9
NtRp241
(dp242
g12
g37
sg14
S'STIXGeneral'
p243
sg16
I400
sg17
g13
sg18
g13
sg19
S'/usr/share/fonts/stix-fonts/STIXGeneralItalic.otf'
p244
sg21
g22
sbag7
(g8
g9
NtRp245
(dp246
g12
g13
sg14
S'STIXSizeFiveSym'
p247
sg16
I400
sg17
g13
sg18
g13
sg19
S'/usr/share/fonts/stix-fonts/STIXSizFiveSymReg.otf'
p248
sg21
g22
sbag7
(g8
g9
NtRp249
(dp250
g12
g13
sg14
S'STIXIntegralsSm'
p251
sg16
I400
sg17
g13
sg18
g13
sg19
S'/usr/share/fonts/stix-fonts/STIXIntSmReg.otf'
p252
sg21
g22
sbag7
(g8
g9
NtRp253
(dp254
g12
g13
sg14
S'Hei'
p255
sg16
I400
sg17
g13
sg18
g13
sg19
S'/usr/share/fonts/douban-fonts/Hei.ttf'
p256
sg21
g22
sbag7
(g8
g9
NtRp257
(dp258
g12
g13
sg14
S'STIXSizeOneSym'
p259
sg16
I700
sg17
g13
sg18
g13
sg19
S'/usr/share/fonts/stix-fonts/STIXSizOneSymBol.otf'
p260
sg21
g22
sbag7
(g8
g9
NtRp261
(dp262
g12
g13
sg14
S'STIXVariants'
p263
sg16
I700
sg17
g13
sg18
g13
sg19
S'/usr/share/fonts/stix-fonts/STIXVarBol.otf'
p264
sg21
g22
sbag7
(g8
g9
NtRp265
(dp266
g12
g13
sg14
S'STIXSizeOneSym'
p267
sg16
I400
sg17
g13
sg18
g13
sg19
S'/usr/share/fonts/stix-fonts/STIXSizOneSymReg.otf'
p268
sg21
g22
sbag7
(g8
g9
NtRp269
(dp270
g12
g13
sg14
S'STIXIntegralsD'
p271
sg16
I400
sg17
g13
sg18
g13
sg19
S'/usr/share/fonts/stix-fonts/STIXIntDReg.otf'
p272
sg21
g22
sbag7
(g8
g9
NtRp273
(dp274
g12
g13
sg14
S'STIXIntegralsUp'
p275
sg16
I400
sg17
g13
sg18
g13
sg19
S'/usr/share/fonts/stix-fonts/STIXIntUpReg.otf'
p276
sg21
g22
sbag7
(g8
g9
NtRp277
(dp278
g12
g13
sg14
S'STIXSizeTwoSym'
p279
sg16
I400
sg17
g13
sg18
g13
sg19
S'/usr/share/fonts/stix-fonts/STIXSizTwoSymReg.otf'
p280
sg21
g22
sbasS'defaultFamily'
p281
(dp282
S'afm'
p283
S'Helvetica'
p284
sS'ttf'
p285
S'Bitstream Vera Sans'
p286
ssS'ttffiles'
p287
(lp288
S'/usr/share/matplotlib/mpl-data/fonts/ttf/cmb10.ttf'
p289
aS'/usr/share/matplotlib/mpl-data/fonts/ttf/cmex10.ttf'
p290
aS'/usr/share/matplotlib/mpl-data/fonts/ttf/VeraMono.ttf'
p291
aS'/usr/share/matplotlib/mpl-data/fonts/ttf/VeraSeBd.ttf'
p292
aS'/usr/share/matplotlib/mpl-data/fonts/ttf/STIXNonUniIta.ttf'
p293
aS'/usr/share/matplotlib/mpl-data/fonts/ttf/STIXSizOneSymReg.ttf'
p294
aS'/usr/share/matplotlib/mpl-data/fonts/ttf/STIXSizThreeSymReg.ttf'
p295
aS'/usr/share/matplotlib/mpl-data/fonts/ttf/STIXSizTwoSymBol.ttf'
p296
aS'/usr/share/matplotlib/mpl-data/fonts/ttf/cmtt10.ttf'
p297
aS'/usr/share/matplotlib/mpl-data/fonts/ttf/VeraSe.ttf'
p298
aS'/usr/share/matplotlib/mpl-data/fonts/ttf/STIXGeneral.ttf'
p299
aS'/usr/share/matplotlib/mpl-data/fonts/ttf/STIXNonUniBolIta.ttf'
p300
aS'/usr/share/matplotlib/mpl-data/fonts/ttf/STIXNonUni.ttf'
p301
aS'/usr/share/matplotlib/mpl-data/fonts/ttf/STIXSizFiveSymReg.ttf'
p302
aS'/usr/share/matplotlib/mpl-data/fonts/ttf/STIXSizOneSymBol.ttf'
p303
aS'/usr/share/matplotlib/mpl-data/fonts/ttf/VeraBI.ttf'
p304
aS'/usr/share/matplotlib/mpl-data/fonts/ttf/VeraBd.ttf'
p305
aS'/usr/share/matplotlib/mpl-data/fonts/ttf/VeraIt.ttf'
p306
aS'/usr/share/matplotlib/mpl-data/fonts/ttf/STIXGeneralBol.ttf'
p307
aS'/usr/share/matplotlib/mpl-data/fonts/ttf/cmr10.ttf'
p308
aS'/usr/share/matplotlib/mpl-data/fonts/ttf/STIXSizTwoSymReg.ttf'
p309
aS'/usr/share/matplotlib/mpl-data/fonts/ttf/STIXSizFourSymReg.ttf'
p310
aS'/usr/share/matplotlib/mpl-data/fonts/ttf/Vera.ttf'
p311
aS'/usr/share/matplotlib/mpl-data/fonts/ttf/cmsy10.ttf'
p312
aS'/usr/share/matplotlib/mpl-data/fonts/ttf/STIXSizThreeSymBol.ttf'
p313
aS'/usr/share/matplotlib/mpl-data/fonts/ttf/cmss10.ttf'
p314
aS'/usr/share/matplotlib/mpl-data/fonts/ttf/STIXSizFourSymBol.ttf'
p315
aS'/usr/share/matplotlib/mpl-data/fonts/ttf/STIXGeneralItalic.ttf'
p316
aS'/usr/share/matplotlib/mpl-data/fonts/ttf/VeraMoBd.ttf'
p317
aS'/usr/share/matplotlib/mpl-data/fonts/ttf/cmmi10.ttf'
p318
aS'/usr/share/matplotlib/mpl-data/fonts/ttf/STIXNonUniBol.ttf'
p319
aS'/usr/share/matplotlib/mpl-data/fonts/ttf/VeraMoIt.ttf'
p320
aS'/usr/share/matplotlib/mpl-data/fonts/ttf/VeraMoBI.ttf'
p321
aS'/usr/share/matplotlib/mpl-data/fonts/ttf/STIXGeneralBolIta.ttf'
p322
aS'/usr/share/fonts/stix-fonts/STIXNonUniBolIta.otf'
p323
aS'/usr/share/fonts/stix-fonts/STIXIntDBol.otf'
p324
aS'/usr/share/fonts/stix-fonts/STIXIntSmBol.otf'
p325
aS'/usr/share/fonts/texcm-ttf/cmex10.ttf'
p326
aS'/usr/share/fonts/stix-fonts/STIXSizTwoSymBol.otf'
p327
aS'/usr/share/fonts/texcm-ttf/cmsy10.ttf'
p328
aS'/usr/share/fonts/stix-fonts/STIXIntUpBol.otf'
p329
aS'/usr/share/fonts/stix-fonts/STIXIntUpDReg.otf'
p330
aS'/usr/share/fonts/stix-fonts/STIXGeneral.otf'
p331
aS'/usr/share/fonts/stix-fonts/STIXNonUni.otf'
p332
aS'/usr/share/fonts/stix-fonts/STIXNonUniIta.otf'
p333
aS'/usr/share/fonts/ttf-bitstream-vera/VeraMoBI.ttf'
p334
aS'/usr/share/fonts/ttf-bitstream-vera/VeraSeBd.ttf'
p335
aS'/usr/share/fonts/ttf-bitstream-vera/VeraMoIt.ttf'
p336
aS'/usr/share/fonts/texcm-ttf/cmr10.ttf'
p337
aS'/usr/share/fonts/stix-fonts/STIXIntUpDBol.otf'
p338
aS'/usr/share/fonts/stix-fonts/STIXGeneralBol.otf'
p339
aS'/usr/share/fonts/douban-fonts/AdobeHeitiStd-Regular.otf'
p340
aS'/usr/share/fonts/stix-fonts/STIXNonUniBol.otf'
p341
aS'/usr/share/fonts/ttf-bitstream-vera/VeraMoBd.ttf'
p342
aS'/usr/share/fonts/texcm-ttf/cmmi10.ttf'
p343
aS'/usr/share/fonts/stix-fonts/STIXSizFourSymReg.otf'
p344
aS'/usr/share/fonts/stix-fonts/STIXSizThreeSymReg.otf'
p345
aS'/usr/share/fonts/stix-fonts/STIXIntUpSmReg.otf'
p346
aS'/usr/share/fonts/stix-fonts/STIXSizFourSymBol.otf'
p347
aS'/usr/share/fonts/ttf-bitstream-vera/VeraBI.ttf'
p348
aS'/usr/share/fonts/ttf-bitstream-vera/Vera.ttf'
p349
aS'/usr/share/fonts/stix-fonts/STIXVar.otf'
p350
aS'/usr/share/fonts/stix-fonts/STIXSizThreeSymBol.otf'
p351
aS'/usr/share/fonts/stix-fonts/STIXIntUpSmBol.otf'
p352
aS'/usr/share/fonts/stix-fonts/STIXGeneralBolIta.otf'
p353
aS'/usr/share/fonts/stix-fonts/STIXGeneralItalic.otf'
p354
aS'/usr/share/fonts/stix-fonts/STIXSizFiveSymReg.otf'
p355
aS'/usr/share/fonts/ttf-bitstream-vera/VeraIt.ttf'
p356
aS'/usr/share/fonts/stix-fonts/STIXIntSmReg.otf'
p357
aS'/usr/share/fonts/ttf-bitstream-vera/VeraBd.ttf'
p358
aS'/usr/share/fonts/ttf-bitstream-vera/VeraSe.ttf'
p359
aS'/usr/share/fonts/douban-fonts/Hei.ttf'
p360
aS'/usr/share/fonts/stix-fonts/STIXSizOneSymBol.otf'
p361
aS'/usr/share/fonts/ttf-bitstream-vera/VeraMono.ttf'
p362
aS'/usr/share/fonts/stix-fonts/STIXVarBol.otf'
p363
aS'/usr/share/fonts/stix-fonts/STIXSizOneSymReg.otf'
p364
aS'/usr/share/fonts/stix-fonts/STIXIntDReg.otf'
p365
aS'/usr/share/fonts/stix-fonts/STIXIntUpReg.otf'
p366
aS'/usr/share/fonts/stix-fonts/STIXSizTwoSymReg.otf'
p367
asS'_FontManager__default_weight'
p368
g13
sS'_version'
p369
I7
sS'ttf_lookup_cache'
p370
(dp371
sS'default_size'
p372
NsS'defaultFont'
p373
(dp374
g283
Nsg285
g311
ssS'afmfiles'
p375
(lp376
S'/usr/share/matplotlib/mpl-data/fonts/afm/pzcmi8a.afm'
p377
aS'/usr/share/matplotlib/mpl-data/fonts/afm/phvl8a.afm'
p378
aS'/usr/share/matplotlib/mpl-data/fonts/afm/putbi8a.afm'
p379
aS'/usr/share/matplotlib/mpl-data/fonts/pdfcorefonts/Helvetica-BoldOblique.afm'
p380
aS'/usr/share/matplotlib/mpl-data/fonts/afm/phvro8an.afm'
p381
aS'/usr/share/matplotlib/mpl-data/fonts/afm/pbkd8a.afm'
p382
aS'/usr/share/matplotlib/mpl-data/fonts/afm/pncri8a.afm'
p383
aS'/usr/share/matplotlib/mpl-data/fonts/pdfcorefonts/Helvetica-Bold.afm'
p384
aS'/usr/share/matplotlib/mpl-data/fonts/pdfcorefonts/Times-BoldItalic.afm'
p385
aS'/usr/share/matplotlib/mpl-data/fonts/afm/putr8a.afm'
p386
aS'/usr/share/matplotlib/mpl-data/fonts/afm/pagdo8a.afm'
p387
aS'/usr/share/matplotlib/mpl-data/fonts/afm/putb8a.afm'
p388
aS'/usr/share/matplotlib/mpl-data/fonts/afm/pncb8a.afm'
p389
aS'/usr/share/matplotlib/mpl-data/fonts/pdfcorefonts/Courier-Bold.afm'
p390
aS'/usr/share/matplotlib/mpl-data/fonts/afm/pcrro8a.afm'
p391
aS'/usr/share/matplotlib/mpl-data/fonts/afm/pncr8a.afm'
p392
aS'/usr/share/matplotlib/mpl-data/fonts/afm/cmex10.afm'
p393
aS'/usr/share/matplotlib/mpl-data/fonts/afm/cmtt10.afm'
p394
aS'/usr/share/matplotlib/mpl-data/fonts/pdfcorefonts/Symbol.afm'
p395
aS'/usr/share/matplotlib/mpl-data/fonts/afm/phvr8an.afm'
p396
aS'/usr/share/matplotlib/mpl-data/fonts/afm/phvro8a.afm'
p397
aS'/usr/share/matplotlib/mpl-data/fonts/afm/ptmr8a.afm'
p398
aS'/usr/share/matplotlib/mpl-data/fonts/pdfcorefonts/Helvetica-Oblique.afm'
p399
aS'/usr/share/matplotlib/mpl-data/fonts/afm/pplbi8a.afm'
p400
aS'/usr/share/matplotlib/mpl-data/fonts/afm/cmsy10.afm'
p401
aS'/usr/share/matplotlib/mpl-data/fonts/afm/pagk8a.afm'
p402
aS'/usr/share/matplotlib/mpl-data/fonts/pdfcorefonts/Courier-BoldOblique.afm'
p403
aS'/usr/share/matplotlib/mpl-data/fonts/afm/pcrr8a.afm'
p404
aS'/usr/share/matplotlib/mpl-data/fonts/afm/cmmi10.afm'
p405
aS'/usr/share/matplotlib/mpl-data/fonts/afm/pagko8a.afm'
p406
aS'/usr/share/matplotlib/mpl-data/fonts/afm/phvbo8an.afm'
p407
aS'/usr/share/matplotlib/mpl-data/fonts/afm/phvbo8a.afm'
p408
aS'/usr/share/matplotlib/mpl-data/fonts/afm/cmr10.afm'
p409
aS'/usr/share/matplotlib/mpl-data/fonts/pdfcorefonts/Times-Bold.afm'
p410
aS'/usr/share/matplotlib/mpl-data/fonts/afm/psyr.afm'
p411
aS'/usr/share/matplotlib/mpl-data/fonts/afm/phvlo8a.afm'
p412
aS'/usr/share/matplotlib/mpl-data/fonts/afm/phvb8a.afm'
p413
aS'/usr/share/matplotlib/mpl-data/fonts/afm/pplb8a.afm'
p414
aS'/usr/share/matplotlib/mpl-data/fonts/afm/pzdr.afm'
p415
aS'/usr/share/matplotlib/mpl-data/fonts/afm/ptmri8a.afm'
p416
aS'/usr/share/matplotlib/mpl-data/fonts/afm/pcrbo8a.afm'
p417
aS'/usr/share/matplotlib/mpl-data/fonts/afm/pplr8a.afm'
p418
aS'/usr/share/matplotlib/mpl-data/fonts/afm/pbkl8a.afm'
p419
aS'/usr/share/matplotlib/mpl-data/fonts/afm/pncbi8a.afm'
p420
aS'/usr/share/matplotlib/mpl-data/fonts/pdfcorefonts/ZapfDingbats.afm'
p421
aS'/usr/share/matplotlib/mpl-data/fonts/afm/ptmb8a.afm'
p422
aS'/usr/share/matplotlib/mpl-data/fonts/pdfcorefonts/Helvetica.afm'
p423
aS'/usr/share/matplotlib/mpl-data/fonts/afm/pplri8a.afm'
p424
aS'/usr/share/matplotlib/mpl-data/fonts/afm/ptmbi8a.afm'
p425
aS'/usr/share/matplotlib/mpl-data/fonts/afm/pbkli8a.afm'
p426
aS'/usr/share/matplotlib/mpl-data/fonts/pdfcorefonts/Courier-Oblique.afm'
p427
aS'/usr/share/matplotlib/mpl-data/fonts/afm/pcrb8a.afm'
p428
aS'/usr/share/matplotlib/mpl-data/fonts/afm/pagd8a.afm'
p429
aS'/usr/share/matplotlib/mpl-data/fonts/afm/pbkdi8a.afm'
p430
aS'/usr/share/matplotlib/mpl-data/fonts/pdfcorefonts/Times-Italic.afm'
p431
aS'/usr/share/matplotlib/mpl-data/fonts/pdfcorefonts/Times-Roman.afm'
p432
aS'/usr/share/matplotlib/mpl-data/fonts/afm/putri8a.afm'
p433
aS'/usr/share/matplotlib/mpl-data/fonts/pdfcorefonts/Courier.afm'
p434
aS'/usr/share/matplotlib/mpl-data/fonts/afm/phvr8a.afm'
p435
aS'/usr/share/matplotlib/mpl-data/fonts/afm/phvb8an.afm'
p436
aS'/usr/share/fonts/urw-fonts/n019044l.afm'
p437
aS'/usr/share/fonts/urw-fonts/n019064l.afm'
p438
aS'/usr/share/fonts/urw-fonts/a010033l.afm'
p439
aS'/usr/share/fonts/urw-fonts/p052004l.afm'
p440
aS'/usr/share/fonts/urw-fonts/n019004l.afm'
p441
aS'/usr/share/fonts/urw-fonts/d050000l.afm'
p442
aS'/usr/share/fonts/urw-fonts/n019003l.afm'
p443
aS'/usr/share/fonts/urw-fonts/n019024l.afm'
p444
aS'/usr/share/fonts/urw-fonts/n021004l.afm'
p445
aS'/usr/share/fonts/urw-fonts/c059036l.afm'
p446
aS'/usr/share/fonts/urw-fonts/b018012l.afm'
p447
aS'/usr/share/fonts/urw-fonts/n019023l.afm'
p448
aS'/usr/share/fonts/urw-fonts/n021023l.afm'
p449
aS'/usr/share/fonts/urw-fonts/p052003l.afm'
p450
aS'/usr/share/fonts/urw-fonts/c059033l.afm'
p451
aS'/usr/share/fonts/urw-fonts/b018015l.afm'
p452
aS'/usr/share/fonts/urw-fonts/s050000l.afm'
p453
aS'/usr/share/fonts/urw-fonts/n019063l.afm'
p454
aS'/usr/share/fonts/urw-fonts/n019043l.afm'
p455
aS'/usr/share/fonts/urw-fonts/b018032l.afm'
p456
aS'/usr/share/fonts/urw-fonts/n022003l.afm'
p457
aS'/usr/share/fonts/urw-fonts/c059016l.afm'
p458
aS'/usr/share/fonts/urw-fonts/n022023l.afm'
p459
aS'/usr/share/fonts/urw-fonts/b018035l.afm'
p460
aS'/usr/share/fonts/urw-fonts/p052023l.afm'
p461
aS'/usr/share/fonts/urw-fonts/n022024l.afm'
p462
aS'/usr/share/fonts/urw-fonts/n022004l.afm'
p463
aS'/usr/share/fonts/urw-fonts/a010035l.afm'
p464
aS'/usr/share/fonts/urw-fonts/c059013l.afm'
p465
aS'/usr/share/fonts/urw-fonts/a010015l.afm'
p466
aS'/usr/share/fonts/urw-fonts/n021024l.afm'
p467
aS'/usr/share/fonts/urw-fonts/a010013l.afm'
p468
aS'/usr/share/fonts/urw-fonts/n021003l.afm'
p469
aS'/usr/share/fonts/urw-fonts/z003034l.afm'
p470
aS'/usr/share/fonts/urw-fonts/p052024l.afm'
p471
asS'afmlist'
p472
(lp473
g7
(g8
g9
NtRp474
(dp475
g12
g37
sg14
S'ITC Zapf Chancery'
p476
sg16
I500
sg17
g13
sg18
g13
sg19
g377
sg21
g22
sbag7
(g8
g9
NtRp477
(dp478
g12
g13
sg14
S'Helvetica'
p479
sg16
I200
sg17
g13
sg18
g13
sg19
g378
sg21
g22
sbag7
(g8
g9
NtRp480
(dp481
g12
g37
sg14
S'Utopia'
p482
sg16
I700
sg17
g13
sg18
g13
sg19
g379
sg21
g22
sbag7
(g8
g9
NtRp483
(dp484
g12
g37
sg14
S'Helvetica'
p485
sg16
I700
sg17
g13
sg18
g13
sg19
g380
sg21
g22
sbag7
(g8
g9
NtRp486
(dp487
g12
g37
sg14
S'Helvetica'
p488
sg16
I500
sg17
S'condensed'
p489
sg18
g13
sg19
g381
sg21
g22
sbag7
(g8
g9
NtRp490
(dp491
g12
g13
sg14
S'ITC Bookman'
p492
sg16
I600
sg17
g13
sg18
g13
sg19
g382
sg21
g22
sbag7
(g8
g9
NtRp493
(dp494
g12
g37
sg14
S'New Century Schoolbook'
p495
sg16
I500
sg17
g13
sg18
g13
sg19
g383
sg21
g22
sbag7
(g8
g9
NtRp496
(dp497
g12
g13
sg14
S'Helvetica'
p498
sg16
I700
sg17
g13
sg18
g13
sg19
g384
sg21
g22
sbag7
(g8
g9
NtRp499
(dp500
g12
g37
sg14
S'Times'
p501
sg16
I700
sg17
g13
sg18
g13
sg19
g385
sg21
g22
sbag7
(g8
g9
NtRp502
(dp503
g12
g13
sg14
S'Utopia'
p504
sg16
I400
sg17
g13
sg18
g13
sg19
g386
sg21
g22
sbag7
(g8
g9
NtRp505
(dp506
g12
g37
sg14
S'ITC Avant Garde Gothic'
p507
sg16
I600
sg17
g13
sg18
g13
sg19
g387
sg21
g22
sbag7
(g8
g9
NtRp508
(dp509
g12
g13
sg14
S'Utopia'
p510
sg16
I700
sg17
g13
sg18
g13
sg19
g388
sg21
g22
sbag7
(g8
g9
NtRp511
(dp512
g12
g13
sg14
S'New Century Schoolbook'
p513
sg16
I700
sg17
g13
sg18
g13
sg19
g389
sg21
g22
sbag7
(g8
g9
NtRp514
(dp515
g12
g13
sg14
S'Courier'
p516
sg16
I700
sg17
g13
sg18
g13
sg19
g390
sg21
g22
sbag7
(g8
g9
NtRp517
(dp518
g12
g37
sg14
S'Courier'
p519
sg16
I500
sg17
g13
sg18
g13
sg19
g391
sg21
g22
sbag7
(g8
g9
NtRp520
(dp521
g12
g13
sg14
S'New Century Schoolbook'
p522
sg16
I500
sg17
g13
sg18
g13
sg19
g392
sg21
g22
sbag7
(g8
g9
NtRp523
(dp524
g12
g13
sg14
S'Computer Modern'
p525
sg16
I500
sg17
g13
sg18
g13
sg19
g393
sg21
g22
sbag7
(g8
g9
NtRp526
(dp527
g12
g13
sg14
S'Computer Modern'
p528
sg16
I500
sg17
g13
sg18
g13
sg19
g394
sg21
g22
sbag7
(g8
g9
NtRp529
(dp530
g12
g13
sg14
S'Symbol'
p531
sg16
I500
sg17
g13
sg18
g13
sg19
g395
sg21
g22
sbag7
(g8
g9
NtRp532
(dp533
g12
g13
sg14
S'Helvetica'
p534
sg16
I500
sg17
g489
sg18
g13
sg19
g396
sg21
g22
sbag7
(g8
g9
NtRp535
(dp536
g12
g37
sg14
S'Helvetica'
p537
sg16
I500
sg17
g13
sg18
g13
sg19
g397
sg21
g22
sbag7
(g8
g9
NtRp538
(dp539
g12
g13
sg14
S'Times'
p540
sg16
I500
sg17
g13
sg18
g13
sg19
g398
sg21
g22
sbag7
(g8
g9
NtRp541
(dp542
g12
g37
sg14
S'Helvetica'
p543
sg16
I500
sg17
g13
sg18
g13
sg19
g399
sg21
g22
sbag7
(g8
g9
NtRp544
(dp545
g12
g37
sg14
S'Palatino'
p546
sg16
I700
sg17
g13
sg18
g13
sg19
g400
sg21
g22
sbag7
(g8
g9
NtRp547
(dp548
g12
g37
sg14
S'Computer Modern'
p549
sg16
I500
sg17
g13
sg18
g13
sg19
g401
sg21
g22
sbag7
(g8
g9
NtRp550
(dp551
g12
g13
sg14
S'ITC Avant Garde Gothic'
p552
sg16
I400
sg17
g13
sg18
g13
sg19
g402
sg21
g22
sbag7
(g8
g9
NtRp553
(dp554
g12
g37
sg14
S'Courier'
p555
sg16
I700
sg17
g13
sg18
g13
sg19
g403
sg21
g22
sbag7
(g8
g9
NtRp556
(dp557
g12
g13
sg14
S'Courier'
p558
sg16
I500
sg17
g13
sg18
g13
sg19
g404
sg21
g22
sbag7
(g8
g9
NtRp559
(dp560
g12
g37
sg14
S'Computer Modern'
p561
sg16
I500
sg17
g13
sg18
g13
sg19
g405
sg21
g22
sbag7
(g8
g9
NtRp562
(dp563
g12
g37
sg14
S'ITC Avant Garde Gothic'
p564
sg16
I400
sg17
g13
sg18
g13
sg19
g406
sg21
g22
sbag7
(g8
g9
NtRp565
(dp566
g12
g37
sg14
S'Helvetica'
p567
sg16
I700
sg17
g489
sg18
g13
sg19
g407
sg21
g22
sbag7
(g8
g9
NtRp568
(dp569
g12
g37
sg14
S'Helvetica'
p570
sg16
I700
sg17
g13
sg18
g13
sg19
g408
sg21
g22
sbag7
(g8
g9
NtRp571
(dp572
g12
g13
sg14
S'Computer Modern'
p573
sg16
I500
sg17
g13
sg18
g13
sg19
g409
sg21
g22
sbag7
(g8
g9
NtRp574
(dp575
g12
g13
sg14
S'Times'
p576
sg16
I700
sg17
g13
sg18
g13
sg19
g410
sg21
g22
sbag7
(g8
g9
NtRp577
(dp578
g12
g13
sg14
S'Symbol'
p579
sg16
I500
sg17
g13
sg18
g13
sg19
g411
sg21
g22
sbag7
(g8
g9
NtRp580
(dp581
g12
g37
sg14
S'Helvetica'
p582
sg16
I200
sg17
g13
sg18
g13
sg19
g412
sg21
g22
sbag7
(g8
g9
NtRp583
(dp584
g12
g13
sg14
S'Helvetica'
p585
sg16
I700
sg17
g13
sg18
g13
sg19
g413
sg21
g22
sbag7
(g8
g9
NtRp586
(dp587
g12
g13
sg14
S'Palatino'
p588
sg16
I700
sg17
g13
sg18
g13
sg19
g414
sg21
g22
sbag7
(g8
g9
NtRp589
(dp590
g12
g13
sg14
S'ITC Zapf Dingbats'
p591
sg16
I500
sg17
g13
sg18
g13
sg19
g415
sg21
g22
sbag7
(g8
g9
NtRp592
(dp593
g12
g37
sg14
S'Times'
p594
sg16
I500
sg17
g13
sg18
g13
sg19
g416
sg21
g22
sbag7
(g8
g9
NtRp595
(dp596
g12
g37
sg14
S'Courier'
p597
sg16
I700
sg17
g13
sg18
g13
sg19
g417
sg21
g22
sbag7
(g8
g9
NtRp598
(dp599
g12
g13
sg14
S'Palatino'
p600
sg16
I500
sg17
g13
sg18
g13
sg19
g418
sg21
g22
sbag7
(g8
g9
NtRp601
(dp602
g12
g13
sg14
S'ITC Bookman'
p603
sg16
I200
sg17
g13
sg18
g13
sg19
g419
sg21
g22
sbag7
(g8
g9
NtRp604
(dp605
g12
g37
sg14
S'New Century Schoolbook'
p606
sg16
I700
sg17
g13
sg18
g13
sg19
g420
sg21
g22
sbag7
(g8
g9
NtRp607
(dp608
g12
g13
sg14
S'ZapfDingbats'
p609
sg16
I500
sg17
g13
sg18
g13
sg19
g421
sg21
g22
sbag7
(g8
g9
NtRp610
(dp611
g12
g13
sg14
S'Times'
p612
sg16
I700
sg17
g13
sg18
g13
sg19
g422
sg21
g22
sbag7
(g8
g9
NtRp613
(dp614
g12
g13
sg14
S'Helvetica'
p615
sg16
I500
sg17
g13
sg18
g13
sg19
g423
sg21
g22
sbag7
(g8
g9
NtRp616
(dp617
g12
g37
sg14
S'Palatino'
p618
sg16
I500
sg17
g13
sg18
g13
sg19
g424
sg21
g22
sbag7
(g8
g9
NtRp619
(dp620
g12
g37
sg14
S'Times'
p621
sg16
I700
sg17
g13
sg18
g13
sg19
g425
sg21
g22
sbag7
(g8
g9
NtRp622
(dp623
g12
g37
sg14
S'ITC Bookman'
p624
sg16
I200
sg17
g13
sg18
g13
sg19
g426
sg21
g22
sbag7
(g8
g9
NtRp625
(dp626
g12
g37
sg14
S'Courier'
p627
sg16
I500
sg17
g13
sg18
g13
sg19
g427
sg21
g22
sbag7
(g8
g9
NtRp628
(dp629
g12
g13
sg14
S'Courier'
p630
sg16
I700
sg17
g13
sg18
g13
sg19
g428
sg21
g22
sbag7
(g8
g9
NtRp631
(dp632
g12
g13
sg14
S'ITC Avant Garde Gothic'
p633
sg16
I600
sg17
g13
sg18
g13
sg19
g429
sg21
g22
sbag7
(g8
g9
NtRp634
(dp635
g12
g37
sg14
S'ITC Bookman'
p636
sg16
I600
sg17
g13
sg18
g13
sg19
g430
sg21
g22
sbag7
(g8
g9
NtRp637
(dp638
g12
g37
sg14
S'Times'
p639
sg16
I500
sg17
g13
sg18
g13
sg19
g431
sg21
g22
sbag7
(g8
g9
NtRp640
(dp641
g12
g13
sg14
S'Times'
p642
sg16
I500
sg17
g13
sg18
g13
sg19
g432
sg21
g22
sbag7
(g8
g9
NtRp643
(dp644
g12
g37
sg14
S'Utopia'
p645
sg16
I400
sg17
g13
sg18
g13
sg19
g433
sg21
g22
sbag7
(g8
g9
NtRp646
(dp647
g12
g13
sg14
S'Courier'
p648
sg16
I500
sg17
g13
sg18
g13
sg19
g434
sg21
g22
sbag7
(g8
g9
NtRp649
(dp650
g12
g13
sg14
S'Helvetica'
p651
sg16
I500
sg17
g13
sg18
g13
sg19
g435
sg21
g22
sbag7
(g8
g9
NtRp652
(dp653
g12
g13
sg14
S'Helvetica'
p654
sg16
I700
sg17
g489
sg18
g13
sg19
g436
sg21
g22
sbag7
(g8
g9
NtRp655
(dp656
g12
g13
sg14
S'Nimbus Sans L'
p657
sg16
I700
sg17
g489
sg18
g13
sg19
g437
sg21
g22
sbag7
(g8
g9
NtRp658
(dp659
g12
g37
sg14
S'Nimbus Sans L'
p660
sg16
I700
sg17
g489
sg18
g13
sg19
g438
sg21
g22
sbag7
(g8
g9
NtRp661
(dp662
g12
g37
sg14
S'URW Gothic L'
p663
sg16
I400
sg17
g13
sg18
g13
sg19
g439
sg21
g22
sbag7
(g8
g9
NtRp664
(dp665
g12
g13
sg14
S'URW Palladio L'
p666
sg16
I700
sg17
g13
sg18
g13
sg19
g440
sg21
g22
sbag7
(g8
g9
NtRp667
(dp668
g12
g13
sg14
S'Nimbus Sans L'
p669
sg16
I700
sg17
g13
sg18
g13
sg19
g441
sg21
g22
sbag7
(g8
g9
NtRp670
(dp671
g12
g13
sg14
S'Dingbats'
p672
sg16
I400
sg17
g13
sg18
g13
sg19
g442
sg21
g22
sbag7
(g8
g9
NtRp673
(dp674
g12
g13
sg14
S'Nimbus Sans L'
p675
sg16
I400
sg17
g13
sg18
g13
sg19
g443
sg21
g22
sbag7
(g8
g9
NtRp676
(dp677
g12
g37
sg14
S'Nimbus Sans L'
p678
sg16
I700
sg17
g13
sg18
g13
sg19
g444
sg21
g22
sbag7
(g8
g9
NtRp679
(dp680
g12
g13
sg14
S'Nimbus Roman No9 L'
p681
sg16
I700
sg17
g13
sg18
g13
sg19
g445
sg21
g22
sbag7
(g8
g9
NtRp682
(dp683
g12
g37
sg14
S'Century Schoolbook L'
p684
sg16
I700
sg17
g13
sg18
g13
sg19
g446
sg21
g22
sbag7
(g8
g9
NtRp685
(dp686
g12
g13
sg14
S'URW Bookman L'
p687
sg16
I400
sg17
g13
sg18
g13
sg19
g447
sg21
g22
sbag7
(g8
g9
NtRp688
(dp689
g12
g37
sg14
S'Nimbus Sans L'
p690
sg16
I400
sg17
g13
sg18
g13
sg19
g448
sg21
g22
sbag7
(g8
g9
NtRp691
(dp692
g12
g37
sg14
S'Nimbus Roman No9 L'
p693
sg16
I400
sg17
g13
sg18
g13
sg19
g449
sg21
g22
sbag7
(g8
g9
NtRp694
(dp695
g12
g13
sg14
S'URW Palladio L'
p696
sg16
I500
sg17
g13
sg18
g13
sg19
g450
sg21
g22
sbag7
(g8
g9
NtRp697
(dp698
g12
g37
sg14
S'Century Schoolbook L'
p699
sg16
I400
sg17
g13
sg18
g13
sg19
g451
sg21
g22
sbag7
(g8
g9
NtRp700
(dp701
g12
g13
sg14
S'URW Bookman L'
p702
sg16
I700
sg17
g13
sg18
g13
sg19
g452
sg21
g22
sbag7
(g8
g9
NtRp703
(dp704
g12
g13
sg14
S'Standard Symbols L'
p705
sg16
I400
sg17
g13
sg18
g13
sg19
g453
sg21
g22
sbag7
(g8
g9
NtRp706
(dp707
g12
g37
sg14
S'Nimbus Sans L'
p708
sg16
I400
sg17
g489
sg18
g13
sg19
g454
sg21
g22
sbag7
(g8
g9
NtRp709
(dp710
g12
g13
sg14
S'Nimbus Sans L'
p711
sg16
I400
sg17
g489
sg18
g13
sg19
g455
sg21
g22
sbag7
(g8
g9
NtRp712
(dp713
g12
g37
sg14
S'URW Bookman L'
p714
sg16
I400
sg17
g13
sg18
g13
sg19
g456
sg21
g22
sbag7
(g8
g9
NtRp715
(dp716
g12
g13
sg14
S'Nimbus Mono L'
p717
sg16
I400
sg17
g13
sg18
g13
sg19
g457
sg21
g22
sbag7
(g8
g9
NtRp718
(dp719
g12
g13
sg14
S'Century Schoolbook L'
p720
sg16
I700
sg17
g13
sg18
g13
sg19
g458
sg21
g22
sbag7
(g8
g9
NtRp721
(dp722
g12
g37
sg14
S'Nimbus Mono L'
p723
sg16
I400
sg17
g13
sg18
g13
sg19
g459
sg21
g22
sbag7
(g8
g9
NtRp724
(dp725
g12
g37
sg14
S'URW Bookman L'
p726
sg16
I700
sg17
g13
sg18
g13
sg19
g460
sg21
g22
sbag7
(g8
g9
NtRp727
(dp728
g12
g37
sg14
S'URW Palladio L'
p729
sg16
I400
sg17
g13
sg18
g13
sg19
g461
sg21
g22
sbag7
(g8
g9
NtRp730
(dp731
g12
g37
sg14
S'Nimbus Mono L'
p732
sg16
I700
sg17
g13
sg18
g13
sg19
g462
sg21
g22
sbag7
(g8
g9
NtRp733
(dp734
g12
g13
sg14
S'Nimbus Mono L'
p735
sg16
I700
sg17
g13
sg18
g13
sg19
g463
sg21
g22
sbag7
(g8
g9
NtRp736
(dp737
g12
g37
sg14
S'URW Gothic L'
p738
sg16
I600
sg17
g13
sg18
g13
sg19
g464
sg21
g22
sbag7
(g8
g9
NtRp739
(dp740
g12
g13
sg14
S'Century Schoolbook L'
p741
sg16
I500
sg17
g13
sg18
g13
sg19
g465
sg21
g22
sbag7
(g8
g9
NtRp742
(dp743
g12
g13
sg14
S'URW Gothic L'
p744
sg16
I600
sg17
g13
sg18
g13
sg19
g466
sg21
g22
sbag7
(g8
g9
NtRp745
(dp746
g12
g37
sg14
S'Nimbus Roman No9 L'
p747
sg16
I700
sg17
g13
sg18
g13
sg19
g467
sg21
g22
sbag7
(g8
g9
NtRp748
(dp749
g12
g13
sg14
S'URW Gothic L'
p750
sg16
I400
sg17
g13
sg18
g13
sg19
g468
sg21
g22
sbag7
(g8
g9
NtRp751
(dp752
g12
g13
sg14
S'Nimbus Roman No9 L'
p753
sg16
I400
sg17
g13
sg18
g13
sg19
g469
sg21
g22
sbag7
(g8
g9
NtRp754
(dp755
g12
g37
sg14
S'URW Chancery L'
p756
sg16
I500
sg17
g13
sg18
g13
sg19
g470
sg21
g22
sbag7
(g8
g9
NtRp757
(dp758
g12
g37
sg14
S'URW Palladio L'
p759
sg16
I700
sg17
g13
sg18
g13
sg19
g471
sg21
g22
sbasb.